target datalayout = "e-m:e-p270:32:32-p271:32:32-p272:64:64-i64:64-i128:128-f80:128-n8:16:32:64-S128"
target triple = "x86_64-pc-linux-gnu"

%struct.avifRWData = type { ptr, i64 }
%struct.ipmaArray = type { [16 x i8], [16 x i32], i8 }
%struct.avifRWStream = type { ptr, i64, i64 }
%struct.avifItemPropertyDedup = type { %struct.avifItemPropertyArray, %struct.avifRWStream, %struct.avifRWData, i8 }
%struct.avifItemPropertyArray = type { ptr, i32, i32, i32 }
%struct.avifItemProperty = type { i8, i64, i64 }

; Function Attrs: nounwind uwtable
define internal i32 @avifItemPropertyDedupFinish(ptr noundef %0, ptr noundef %1, ptr noundef %2, i32 noundef %3) #0 {
  %5 = alloca i32, align 4
  %6 = alloca ptr, align 8
  %7 = alloca ptr, align 8
  %8 = alloca ptr, align 8
  %9 = alloca i32, align 4
  %10 = alloca i8, align 1
  %11 = alloca i64, align 8
  %12 = alloca i64, align 8
  %13 = alloca ptr, align 8
  %14 = alloca ptr, align 8
  %15 = alloca i32, align 4
  store ptr %0, ptr %6, align 8
  store ptr %1, ptr %7, align 8
  store ptr %2, ptr %8, align 8
  store i32 %3, ptr %9, align 4
  store i8 0, ptr %10, align 1
  %16 = load ptr, ptr %6, align 8
  %17 = getelementptr inbounds nuw %struct.avifItemPropertyDedup, ptr %16, i32 0, i32 1
  %18 = call i64 @avifRWStreamOffset(ptr noundef %17)
  store i64 %18, ptr %11, align 8
  store i64 0, ptr %12, align 8
  br label %19

19:                                               ; preds = %61, %4
  %20 = load i64, ptr %12, align 8
  %21 = load ptr, ptr %6, align 8
  %22 = getelementptr inbounds nuw %struct.avifItemPropertyDedup, ptr %21, i32 0, i32 0
  %23 = getelementptr inbounds nuw %struct.avifItemPropertyArray, ptr %22, i32 0, i32 2
  %24 = load i32, ptr %23, align 4
  %25 = zext i32 %24 to i64
  %26 = icmp ult i64 %20, %25
  br i1 %26, label %27, label %64

27:                                               ; preds = %19
  %28 = load ptr, ptr %6, align 8
  %29 = getelementptr inbounds nuw %struct.avifItemPropertyDedup, ptr %28, i32 0, i32 0
  %30 = getelementptr inbounds nuw %struct.avifItemPropertyArray, ptr %29, i32 0, i32 0
  %31 = load ptr, ptr %30, align 8
  %32 = load i64, ptr %12, align 8
  %33 = getelementptr inbounds %struct.avifItemProperty, ptr %31, i64 %32
  store ptr %33, ptr %13, align 8
  %34 = load ptr, ptr %13, align 8
  %35 = getelementptr inbounds nuw %struct.avifItemProperty, ptr %34, i32 0, i32 2
  %36 = load i64, ptr %35, align 8
  %37 = load i64, ptr %11, align 8
  %38 = icmp eq i64 %36, %37
  br i1 %38, label %39, label %60

39:                                               ; preds = %27
  %40 = load ptr, ptr %7, align 8
  %41 = getelementptr inbounds nuw %struct.avifRWStream, ptr %40, i32 0, i32 0
  %42 = load ptr, ptr %41, align 8
  %43 = getelementptr inbounds nuw %struct.avifRWData, ptr %42, i32 0, i32 0
  %44 = load ptr, ptr %43, align 8
  %45 = load ptr, ptr %13, align 8
  %46 = getelementptr inbounds nuw %struct.avifItemProperty, ptr %45, i32 0, i32 1
  %47 = load i64, ptr %46, align 8
  %48 = getelementptr inbounds i8, ptr %44, i64 %47
  %49 = load ptr, ptr %6, align 8
  %50 = getelementptr inbounds nuw %struct.avifItemPropertyDedup, ptr %49, i32 0, i32 2
  %51 = getelementptr inbounds nuw %struct.avifRWData, ptr %50, i32 0, i32 0
  %52 = load ptr, ptr %51, align 8
  %53 = load i64, ptr %11, align 8
  %54 = call i32 @memcmp(ptr noundef %48, ptr noundef %52, i64 noundef %53) #7
  %55 = icmp ne i32 %54, 0
  br i1 %55, label %60, label %56

56:                                               ; preds = %39
  %57 = load ptr, ptr %13, align 8
  %58 = getelementptr inbounds nuw %struct.avifItemProperty, ptr %57, i32 0, i32 0
  %59 = load i8, ptr %58, align 8
  store i8 %59, ptr %10, align 1
  br label %64

60:                                               ; preds = %39, %27
  br label %61

61:                                               ; preds = %60
  %62 = load i64, ptr %12, align 8
  %63 = add i64 %62, 1
  store i64 %63, ptr %12, align 8
  br label %19, !llvm.loop !53

64:                                               ; preds = %56, %19
  %65 = load i8, ptr %10, align 1
  %66 = zext i8 %65 to i32
  %67 = icmp eq i32 %66, 0
  br i1 %67, label %68, label %108

68:                                               ; preds = %64
  %69 = load ptr, ptr %6, align 8
  %70 = getelementptr inbounds nuw %struct.avifItemPropertyDedup, ptr %69, i32 0, i32 0
  %71 = call ptr @avifArrayPush(ptr noundef %70)
  store ptr %71, ptr %14, align 8
  br label %72

72:                                               ; preds = %68
  %73 = load ptr, ptr %14, align 8
  %74 = icmp ne ptr %73, null
  br i1 %74, label %76, label %75

75:                                               ; preds = %72
  store i32 26, ptr %5, align 4
  br label %138

76:                                               ; preds = %72
  br label %77

77:                                               ; preds = %76
  %78 = load ptr, ptr %6, align 8
  %79 = getelementptr inbounds nuw %struct.avifItemPropertyDedup, ptr %78, i32 0, i32 3
  %80 = load i8, ptr %79, align 8
  %81 = add i8 %80, 1
  store i8 %81, ptr %79, align 8
  %82 = load ptr, ptr %14, align 8
  %83 = getelementptr inbounds nuw %struct.avifItemProperty, ptr %82, i32 0, i32 0
  store i8 %81, ptr %83, align 8
  %84 = load i64, ptr %11, align 8
  %85 = load ptr, ptr %14, align 8
  %86 = getelementptr inbounds nuw %struct.avifItemProperty, ptr %85, i32 0, i32 2
  store i64 %84, ptr %86, align 8
  %87 = load ptr, ptr %7, align 8
  %88 = call i64 @avifRWStreamOffset(ptr noundef %87)
  %89 = load ptr, ptr %14, align 8
  %90 = getelementptr inbounds nuw %struct.avifItemProperty, ptr %89, i32 0, i32 1
  store i64 %88, ptr %90, align 8
  br label %91

91:                                               ; preds = %77
  %92 = load ptr, ptr %7, align 8
  %93 = load ptr, ptr %6, align 8
  %94 = getelementptr inbounds nuw %struct.avifItemPropertyDedup, ptr %93, i32 0, i32 2
  %95 = getelementptr inbounds nuw %struct.avifRWData, ptr %94, i32 0, i32 0
  %96 = load ptr, ptr %95, align 8
  %97 = load i64, ptr %11, align 8
  %98 = call i32 @avifRWStreamWrite(ptr noundef %92, ptr noundef %96, i64 noundef %97)
  store i32 %98, ptr %15, align 4
  %99 = load i32, ptr %15, align 4
  %100 = icmp ne i32 %99, 0
  br i1 %100, label %101, label %103

101:                                              ; preds = %91
  %102 = load i32, ptr %15, align 4
  store i32 %102, ptr %5, align 4
  br label %138

103:                                              ; preds = %91
  br label %104

104:                                              ; preds = %103
  %105 = load ptr, ptr %14, align 8
  %106 = getelementptr inbounds nuw %struct.avifItemProperty, ptr %105, i32 0, i32 0
  %107 = load i8, ptr %106, align 8
  store i8 %107, ptr %10, align 1
  br label %108

108:                                              ; preds = %104, %64
  br label %109

109:                                              ; preds = %108
  %110 = load ptr, ptr %8, align 8
  %111 = getelementptr inbounds nuw %struct.ipmaArray, ptr %110, i32 0, i32 2
  %112 = load i8, ptr %111, align 4
  %113 = zext i8 %112 to i32
  %114 = icmp slt i32 %113, 16
  br i1 %114, label %116, label %115

115:                                              ; preds = %109
  store i32 1, ptr %5, align 4
  br label %138

116:                                              ; preds = %109
  br label %117

117:                                              ; preds = %116
  %118 = load i8, ptr %10, align 1
  %119 = load ptr, ptr %8, align 8
  %120 = getelementptr inbounds nuw %struct.ipmaArray, ptr %119, i32 0, i32 0
  %121 = load ptr, ptr %8, align 8
  %122 = getelementptr inbounds nuw %struct.ipmaArray, ptr %121, i32 0, i32 2
  %123 = load i8, ptr %122, align 4
  %124 = zext i8 %123 to i64
  %125 = getelementptr inbounds [16 x i8], ptr %120, i64 0, i64 %124
  store i8 %118, ptr %125, align 1
  %126 = load i32, ptr %9, align 4
  %127 = load ptr, ptr %8, align 8
  %128 = getelementptr inbounds nuw %struct.ipmaArray, ptr %127, i32 0, i32 1
  %129 = load ptr, ptr %8, align 8
  %130 = getelementptr inbounds nuw %struct.ipmaArray, ptr %129, i32 0, i32 2
  %131 = load i8, ptr %130, align 4
  %132 = zext i8 %131 to i64
  %133 = getelementptr inbounds [16 x i32], ptr %128, i64 0, i64 %132
  store i32 %126, ptr %133, align 4
  %134 = load ptr, ptr %8, align 8
  %135 = getelementptr inbounds nuw %struct.ipmaArray, ptr %134, i32 0, i32 2
  %136 = load i8, ptr %135, align 4
  %137 = add i8 %136, 1
  store i8 %137, ptr %135, align 4
  store i32 0, ptr %5, align 4
  br label %138

138:                                              ; preds = %117, %115, %101, %75
  %139 = load i32, ptr %5, align 4
  ret i32 %139
}