; Function Attrs: nounwind uwtable
define internal fastcc i32 @avifItemPropertyDedupFinish(ptr noundef %0, ptr noundef %1, ptr nocapture noundef %2, i32 noundef %3) unnamed_addr #1 {
  %5 = getelementptr inbounds nuw i8, ptr %0, i64 24
  %6 = tail call i64 @avifRWStreamOffset(ptr noundef nonnull %5) #13
  %7 = getelementptr inbounds nuw i8, ptr %0, i64 12
  %8 = load i32, ptr %7, align 4
  %9 = zext i32 %8 to i64
  %.not45 = icmp eq i32 %8, 0
  br i1 %.not45, label %.thread, label %.lr.ph

.lr.ph:                                           ; preds = %4
  %10 = load ptr, ptr %0, align 8
  %11 = getelementptr inbounds nuw i8, ptr %0, i64 48
  br label %12

12:                                               ; preds = %.lr.ph, %24
  %.03744 = phi i64 [ 0, %.lr.ph ], [ %25, %24 ]
  %13 = getelementptr inbounds %struct.avifItemProperty, ptr %10, i64 %.03744
  %14 = getelementptr inbounds nuw i8, ptr %13, i64 16
  %15 = load i64, ptr %14, align 8
  %16 = icmp eq i64 %15, %6
  br i1 %16, label %17, label %24

17:                                               ; preds = %12
  %18 = load ptr, ptr %1, align 8
  %19 = load ptr, ptr %18, align 8
  %20 = getelementptr inbounds nuw i8, ptr %13, i64 8
  %21 = load i64, ptr %20, align 8
  %22 = getelementptr inbounds i8, ptr %19, i64 %21
  %23 = load ptr, ptr %11, align 8
  %bcmp = tail call i32 @bcmp(ptr %22, ptr %23, i64 %6)
  %.not = icmp eq i32 %bcmp, 0
  br i1 %.not, label %26, label %24

24:                                               ; preds = %12, %17
  %25 = add nuw nsw i64 %.03744, 1
  %exitcond.not = icmp eq i64 %25, %9
  br i1 %exitcond.not, label %.thread, label %12, !llvm.loop !54

26:                                               ; preds = %17
  %27 = load i8, ptr %13, align 8
  %28 = icmp eq i8 %27, 0
  br i1 %28, label %.thread, label %42

.thread:                                          ; preds = %24, %4, %26
  %29 = tail call ptr @avifArrayPush(ptr noundef nonnull %0) #13
  %.not41 = icmp eq ptr %29, null
  br i1 %.not41, label %55, label %30

30:                                               ; preds = %.thread
  %31 = getelementptr inbounds nuw i8, ptr %0, i64 64
  %32 = load i8, ptr %31, align 8
  %33 = add i8 %32, 1
  store i8 %33, ptr %31, align 8
  store i8 %33, ptr %29, align 8
  %34 = getelementptr inbounds nuw i8, ptr %29, i64 16
  store i64 %6, ptr %34, align 8
  %35 = tail call i64 @avifRWStreamOffset(ptr noundef %1) #13
  %36 = getelementptr inbounds nuw i8, ptr %29, i64 8
  store i64 %35, ptr %36, align 8
  %37 = getelementptr inbounds nuw i8, ptr %0, i64 48
  %38 = load ptr, ptr %37, align 8
  %39 = tail call i32 @avifRWStreamWrite(ptr noundef %1, ptr noundef %38, i64 noundef %6) #13
  %.not42 = icmp eq i32 %39, 0
  br i1 %.not42, label %40, label %55

40:                                               ; preds = %30
  %41 = load i8, ptr %29, align 8
  br label %42

42:                                               ; preds = %26, %40
  %.1 = phi i8 [ %41, %40 ], [ %27, %26 ]
  %43 = getelementptr inbounds nuw i8, ptr %2, i64 80
  %44 = load i8, ptr %43, align 4
  %45 = icmp ult i8 %44, 16
  br i1 %45, label %46, label %55

46:                                               ; preds = %42
  %47 = zext nneg i8 %44 to i64
  %48 = getelementptr inbounds [16 x i8], ptr %2, i64 0, i64 %47
  store i8 %.1, ptr %48, align 1
  %49 = getelementptr inbounds nuw i8, ptr %2, i64 16
  %50 = load i8, ptr %43, align 4
  %51 = zext i8 %50 to i64
  %52 = getelementptr inbounds [16 x i32], ptr %49, i64 0, i64 %51
  store i32 %3, ptr %52, align 4
  %53 = load i8, ptr %43, align 4
  %54 = add i8 %53, 1
  store i8 %54, ptr %43, align 4
  br label %55

55:                                               ; preds = %42, %30, %.thread, %46
  %.0 = phi i32 [ 0, %46 ], [ 26, %.thread ], [ %39, %30 ], [ 1, %42 ]
  ret i32 %.0
}